(dp0
(S'schaduw'
p1
S'wellevendheid'
p2
tp3
F0.3193175926188923
s(S'kader'
p4
S'ondermijning'
p5
tp6
F0.14379589038455054
s(S'intolerantie'
p7
S'wetsvoorstel'
p8
tp9
F1.0
s(S'roep'
p10
S'saamhoorigheid'
p11
tp12
F1.0
s(S'geleid'
p13
S'reintegratie'
p14
tp15
I0
s(S'landbouwcrisismaatregel'
p16
S'verandert'
p17
tp18
F1.0
s(S'dwangmiddeel'
p19
S'vraag'
p20
tp21
F1.0
s(S'loonniveau'
p22
S'planbureau'
p23
tp24
F1.0
s(S'instantie'
p25
S'portugal'
p26
tp27
F0.7483499087244969
s(S'innovatie'
p28
S'vrede'
p29
tp30
F1.0
s(S'gegrondvest'
p31
S'onderwijzer'
p32
tp33
F1.0
s(S'beraad'
p34
S'zeelied'
p35
tp36
F0.459949706718424
s(S'ontvangsten'
p37
S'vinexlocatie'
p38
tp39
I0
s(S'onderwijsinstelling'
p40
S'voedselzekerheid'
p41
tp42
F0.3290858372759644
s(S'dienstverlening'
p43
S'poog'
p44
tp45
F0.3628138925139061
s(S'antwerpen'
p46
S'weerklank'
p47
tp48
F0.4980013537099535
s(S'resultaat'
p49
S'wegenwet'
p50
tp51
F0.005919262812531388
s(S'onthoude'
p52
S'voorzoover'
p53
tp54
F0.512212187908975
s(S'genot'
p55
S'spaartegoed'
p56
tp57
F0.14437209804590148
s(S'stilzwijg'
p58
S'vraagpunt'
p59
tp60
F0.9330217716359441
s(S'aanwinst'
p61
S'kenteekeen'
p62
tp63
F1.0
s(S'functionering'
p64
S'vestigingsklimaat'
p65
tp66
F1.0
s(S'persoonsgebonden'
p67
S'uit'
p68
tp69
F0.5544827758395943
s(S'besluit'
p70
S'geschil'
p71
tp72
F1.0
s(S'takenpakket'
p73
S'vriend'
p74
tp75
F0.7105988668789051
s(S'begrotingsoverschot'
p76
S'grondeigendom'
p77
tp78
I0
s(S'bevolking'
p79
S'kamers'
p80
tp81
F0.28603135619597225
s(S'doorkruis'
p82
S'zuiderzee'
p83
tp84
F0.4661829048354622
s(S'mce'
p85
S'verkoop'
p86
tp87
F0.0728883583197389
s(S'beziet'
p88
S'samenwerking'
p89
tp90
F1.0
s(S'afkondiging'
p91
S'leerlingstelsel'
p92
tp93
F0.5293633228079707
s(S'graanprijs'
p94
S'heroverweging'
p95
tp96
F1.0
s(S'gejuich'
p97
S'schrap'
p98
tp99
F0.6213295829567127
s(S'hypotheek'
p100
S'versterking'
p101
tp102
F1.0
s(S'eindcijfer'
p103
S'inluid'
p104
tp105
I0
s(S'aardwarmte'
p106
S'tijdvak'
p107
tp108
F1.0
s(S'inlander'
p109
S'overheidsuitgaf'
p110
tp111
F1.0
s(S'offerzin'
p112
S'voedselvoorziening'
p113
tp114
F1.0
s(S'herstelbeleid'
p115
S'wetboeken'
p116
tp117
F0.833947107498643
s(S'deele'
p118
S'veiligheld'
p119
tp120
F0.3605382573554306
s(S'maat'
p121
S'stageplaats'
p122
tp123
F0.31084197336841346
s(S'gemeenten'
p124
S'hoofdstructuur'
p125
tp126
F1.0
s(S'energiebesparing'
p127
S'voornaam'
p128
tp129
F0.5839096953782524
s(S'betuwelijn'
p130
S'caribische'
p131
tp132
F0.9833038206462457
s(S'herkenbaarheid'
p133
S'wereldhandelsconferentie'
p134
tp135
F1.0
s(S'inkomen'
p136
S'stoomoorlogsschepen'
p137
tp138
F0.01966686318100895
s(S'monumentenzorg'
p139
S'rechtshoogeschool'
p140
tp141
F0.4108690795974192
s(S'opgaf'
p142
S'verachtering'
p143
tp144
F0.10722900291621246
s(S'korea'
p145
S'milieuprobleem'
p146
tp147
F1.0
s(S'oudst'
p148
S'voortouw'
p149
tp150
F1.0
s.