(dp0
(S'lidstaat'
p1
S'regering'
p2
tp3
F1.0
s(S'inspanning'
p4
S'wereld'
p5
tp6
F0.08421553695800839
s(S'belasting'
p7
S'verhoging'
p8
tp9
F0.15701651812998058
s(S'land'
p10
S'resultaat'
p11
tp12
F0.3154066461489575
s(S'middeel'
p13
S'zorg'
p14
tp15
F0.06692253755870674
s(S'aantal'
p16
S'onderwijs'
p17
tp18
F0.4108951099567665
s(S'regering'
p19
S'wetenschappelijk'
p20
tp21
F0.03559396931145476
s(S'maatregel'
p22
S'probleem'
p23
tp24
F0.44225005603463863
s(S'maatregel'
p25
S'onderwijs'
p26
tp27
F0.60892175474181
s(S'regering'
p28
S'vervoer'
p29
tp30
F0.15268132980925614
s(S'inkomstenbelasting'
p31
S'loon'
p32
tp33
F0.9681406289925665
s(S'kennis'
p34
S'onderwijs'
p35
tp36
F1.0
s(S'regering'
p37
S'termijn'
p38
tp39
F0.357509136863311
s(S'handel'
p40
S'landbouw'
p41
tp42
F0.7810033908229072
s(S'partner'
p43
S'regering'
p44
tp45
F1.0
s(S'betrekking'
p46
S'nederland'
p47
tp48
F0.9296005199847872
s(S'aandacht'
p49
S'vraagstuk'
p50
tp51
F0.06039744345616075
s(S'overheid'
p52
S'werkgelegenheid'
p53
tp54
F0.11516724549626821
s(S'nota'
p55
S'ontwikkeling'
p56
tp57
F1.0
s(S'regering'
p58
S'volk'
p59
tp60
F0.21015371345361863
s(S'natie'
p61
S'regering'
p62
tp63
F1.0
s(S'hulp'
p64
S'regering'
p65
tp66
F1.0
s(S'land'
p67
S'rol'
p68
tp69
F0.23553595343754458
s(S'wetsontwerp'
p70
S'wijziging'
p71
tp72
F0.9666172378041705
s(S'economie'
p73
S'herstel'
p74
tp75
F0.9568410674224229
s(S'burger'
p76
S'land'
p77
tp78
F0.908670710952559
s(S'voorziening'
p79
S'zorg'
p80
tp81
F0.3671808335879749
s(S'bijdrage'
p82
S'regering'
p83
tp84
F0.7906891434091413
s(S'kader'
p85
S'regering'
p86
tp87
F1.0
s(S'betrekking'
p88
S'mogendheid'
p89
tp90
F0.3737325314694139
s(S'regering'
p91
S'stelsel'
p92
tp93
F0.43313432181141004
s(S'verbetering'
p94
S'wet'
p95
tp96
F0.37135933560628226
s(S'leerling'
p97
S'onderwijs'
p98
tp99
F1.0
s(S'maatregel'
p100
S'verhoging'
p101
tp102
F0.1486205563215228
s(S'bedrijf'
p103
S'burger'
p104
tp105
F0.9276156847137825
s(S'name'
p106
S'onderwijs'
p107
tp108
F1.0
s(S'handel'
p109
S'nijverheid'
p110
tp111
F0.41961064198496645
s(S'herziening'
p112
S'regeling'
p113
tp114
F0.7796948443935598
s(S'armoede'
p115
S'land'
p116
tp117
F1.0
s(S'volk'
p118
S'welvaart'
p119
tp120
F0.522531868051785
s(S'regering'
p121
S'scholing'
p122
tp123
F0.31108194887539514
s(S'economie'
p124
S'ontwikkeling'
p125
tp126
F0.900457031336885
s(S'mens'
p127
S'wereld'
p128
tp129
F0.07073530436807973
s(S'kwaliteit'
p130
S'verbetering'
p131
tp132
F0.32126956473888096
s(S'nederland'
p133
S'onderwijs'
p134
tp135
F0.6986265949295756
s(S'gemeent'
p136
S'rijk'
p137
tp138
F0.3456247771979737
s(S'economie'
p139
S'groei'
p140
tp141
F1.0
s(S'probleem'
p142
S'samenleving'
p143
tp144
F1.0
s(S'ontwikkeling'
p145
S'samenwerking'
p146
tp147
F0.5950384746177657
s(S'gebied'
p148
S'landbouw'
p149
tp150
F0.6081143948862319
s(S'last'
p151
S'regering'
p152
tp153
F1.0
s(S'mens'
p154
S'partner'
p155
tp156
F0.3682708252168548
s(S'maatregel'
p157
S'ontwikkeling'
p158
tp159
F0.786261245411885
s(S'samenwerking'
p160
S'veiligheid'
p161
tp162
F0.5350192384111228
s(S'gebied'
p163
S'onderwijs'
p164
tp165
F0.5623145664357607
s(S'europa'
p166
S'gemeenschap'
p167
tp168
F0.742981514021074
s(S'regering'
p169
S'vermogen'
p170
tp171
F0.12735242382708944
s(S'onderwijs'
p172
S'plaats'
p173
tp174
F0.9833651640553672
s(S'burger'
p175
S'kwaliteit'
p176
tp177
F0.68935166425185
s(S'europa'
p178
S'integratie'
p179
tp180
F0.650476977964028
s(S'ed.mog'
p181
S'wet'
p182
tp183
F0.18032329288696686
s(S'regering'
p184
S'resultaat'
p185
tp186
F0.4964461334373896
s(S'aard'
p187
S'mogendheid'
p188
tp189
F0.48495208777534815
s(S'antillen'
p190
S'aruba'
p191
tp192
F0.6226978342625307
s(S'volk'
p193
S'zoo'
p194
tp195
F0.08240498010722921
s(S'aandacht'
p196
S'werk'
p197
tp198
F0.06684252428706829
s(S'onzekerheid'
p199
S'regering'
p200
tp201
F1.0
s(S'mens'
p202
S'samenleving'
p203
tp204
F0.5091964841836208
s(S'regering'
p205
S'stijging'
p206
tp207
F0.3130481071228857
s(S'scholing'
p208
S'werk'
p209
tp210
F0.4872418450367512
s(S'land'
p211
S'uitgaf'
p212
tp213
F0.22461959701965348
s(S'europa'
p214
S'toekomst'
p215
tp216
F0.32887609653164424
s(S'natie'
p217
S'nederland'
p218
tp219
F1.0
s(S'eis'
p220
S'land'
p221
tp222
F1.0
s(S'regering'
p223
S'samenhang'
p224
tp225
F0.3741640176937678
s(S'middeel'
p226
S'wet'
p227
tp228
F0.1406674109445047
s(S'gemeenschap'
p229
S'regering'
p230
tp231
F1.0
s(S'middeel'
p232
S'verbetering'
p233
tp234
F0.3791175503052891
s(S'koninkrijk'
p235
S'suriname'
p236
tp237
F0.31761654140855505
s(S'gebied'
p238
S'regering'
p239
tp240
F0.6980530194511593
s(S'land'
p241
S'veiligheid'
p242
tp243
F0.2100076028241038
s(S'activiteit'
p244
S'regering'
p245
tp246
F1.0
s(S'middeel'
p247
S'rijks'
p248
tp249
F0.3773947065087042
s(S'regering'
p250
S'werkgelegenheid'
p251
tp252
F0.10651488162761344
s(S'beleid'
p253
S'doel'
p254
tp255
F0.6405551881307189
s(S'herziening'
p256
S'regering'
p257
tp258
F1.0
s(S'beleid'
p259
S'samenwerking'
p260
tp261
F0.33429447940289925
s(S'regering'
p262
S'vrouw'
p263
tp264
F0.11761269921299279
s(S'onderwijs'
p265
S'wetenschappelijk'
p266
tp267
F0.044281344040361985
s(S'aandacht'
p268
S'overheid'
p269
tp270
F0.4115732061985602
s(S'landbouw'
p271
S'maatregel'
p272
tp273
F1.0
s(S'land'
p274
S'produktie'
p275
tp276
F0.18986891435010259
s(S'land'
p277
S'markt'
p278
tp279
F0.38224382996019307
s(S'bedrijf'
p280
S'economie'
p281
tp282
F0.6191397429011314
s(S'bedrijf'
p283
S'mogelijkheid'
p284
tp285
F0.5485460198802026
s(S'toekomst'
p286
S'welvaart'
p287
tp288
F0.2859299188709428
s(S'regering'
p289
S'vermindering'
p290
tp291
F0.20408137055965947
s(S'inspanning'
p292
S'regering'
p293
tp294
F0.9090462735304395
s(S'samenleving'
p295
S'verantwoordelijkheid'
p296
tp297
F0.5220748937811084
s(S'antillen'
p298
S'regering'
p299
tp300
F1.0
s(S'integratie'
p301
S'regering'
p302
tp303
F1.0
s(S'land'
p304
S'werkgelegenheid'
p305
tp306
F0.06769865896452937
s(S'samenwerking'
p307
S'unie'
p308
tp309
F0.30914342671756995
s(S'overleg'
p310
S'regering'
p311
tp312
F1.0
s(S'besluit'
p313
S'regering'
p314
tp315
F1.0
s(S'kunst'
p316
S'wetenschap'
p317
tp318
F0.06231675936993473
s(S'kabinet'
p319
S'regering'
p320
tp321
F1.0
s(S'vertegenwoordiger'
p322
S'volk'
p323
tp324
F1.0
s(S'leven'
p325
S'mens'
p326
tp327
F1.0
s(S'land'
p328
S'mate'
p329
tp330
F0.4603115478978743
s(S'samenwerking'
p331
S'terrein'
p332
tp333
F0.6260983685751044
s(S'werk'
p334
S'werkloosheid'
p335
tp336
F0.5136427744596306
s(S'mens'
p337
S'overheid'
p338
tp339
F0.7069635115922922
s(S'regering'
p340
S'verbetering'
p341
tp342
F0.3831067854899131
s(S'mogendheid'
p343
S'nederland'
p344
tp345
F1.0
s(S'hulp'
p346
S'nederland'
p347
tp348
F1.0
s(S'regering'
p349
S'vorm'
p350
tp351
F0.1831444024075962
s(S'deel'
p352
S'verbetering'
p353
tp354
F0.2025029411069105
s(S'gemeenschap'
p355
S'samenwerking'
p356
tp357
F0.7154757478888576
s(S'aantal'
p358
S'werkgelegenheid'
p359
tp360
F0.05431156050696643
s(S'ontwikkeling'
p361
S'suriname'
p362
tp363
F0.16294437073033
s(S'investering'
p364
S'ontwikkeling'
p365
tp366
F1.0
s(S'veiligheid'
p367
S'wereld'
p368
tp369
F0.2813019485373475
s(S'oplossing'
p370
S'regering'
p371
tp372
F1.0
s(S'ontwikkeling'
p373
S'terrein'
p374
tp375
F0.3720568236424284
s(S'bevordering'
p376
S'regering'
p377
tp378
F0.7943357125627015
s(S'natie'
p379
S'samenwerking'
p380
tp381
F0.9426536829667738
s(S'regering'
p382
S'voorbereiding'
p383
tp384
F0.1349758099944219
s(S'mogenden'
p385
S'vergadering'
p386
tp387
F0.41200331534980583
s(S'nederland'
p388
S'ontwikkeling'
p389
tp390
F0.9024547564724227
s(S'nederland'
p391
S'rechtsorde'
p392
tp393
F0.24887365774368853
s(S'kwaliteit'
p394
S'samenleving'
p395
tp396
F0.559288812499243
s(S'partner'
p397
S'werkgelegenheid'
p398
tp399
F0.22173614573198253
s(S'nederland'
p400
S'tijd'
p401
tp402
F0.3494139681092873
s(S'land'
p403
S'verantwoordelijkheid'
p404
tp405
F0.2208591555859747
s(S'regering'
p406
S'uitvoering'
p407
tp408
F0.3079130972397903
s(S'aantal'
p409
S'mens'
p410
tp411
F0.6683691377345327
s(S'kans'
p412
S'overheid'
p413
tp414
F1.0
s(S'regering'
p415
S'tijd'
p416
tp417
F0.40282286099256515
s(S'werkgever'
p418
S'werknemer'
p419
tp420
F0.8987887217821118
s(S'land'
p421
S'toekomst'
p422
tp423
F0.24371094348033712
s(S'edel'
p424
S'grondwet'
p425
tp426
F0.6943556119206683
s(S'belang'
p427
S'terrein'
p428
tp429
F0.16285739683260822
s(S'aandacht'
p430
S'land'
p431
tp432
F0.6997681643956855
s(S'aandacht'
p433
S'veiligheid'
p434
tp435
F0.14694990784811168
s(S'maatregel'
p436
S'middeel'
p437
tp438
F0.7638519438852753
s(S'bestrijding'
p439
S'werkloosheid'
p440
tp441
F0.05205777596068744
s(S'belang'
p442
S'verband'
p443
tp444
F0.11529292088446774
s(S'belang'
p445
S'nederland'
p446
tp447
F0.4854514464974787
s(S'europa'
p448
S'lidstaat'
p449
tp450
F0.3825480608050638
s(S'regering'
p451
S'wijze'
p452
tp453
F0.10702003835021544
s(S'regering'
p454
S'rekening'
p455
tp456
F0.3915217172210235
s(S'burger'
p457
S'onderwijs'
p458
tp459
F0.46524640143557194
s(S'belang'
p460
S'regering'
p461
tp462
F0.42096995060723624
s(S'maatregel'
p463
S'tijd'
p464
tp465
F0.30444602687381045
s(S'duurzame'
p466
S'land'
p467
tp468
F1.0
s(S'gebied'
p469
S'ontwikkeling'
p470
tp471
F0.7262409100377835
s(S'ontwikkeling'
p472
S'overleg'
p473
tp474
F0.5892409752387769
s(S'mens'
p475
S'zekerheid'
p476
tp477
F0.037266512745747826
s(S'justitie'
p478
S'politie'
p479
tp480
F0.8849918312624692
s(S'baan'
p481
S'regering'
p482
tp483
F1.0
s(S'arbeid'
p484
S'regering'
p485
tp486
F0.7458558777594705
s(S'aandacht'
p487
S'samenwerking'
p488
tp489
F0.27514972664510906
s(S'economie'
p490
S'zorg'
p491
tp492
F0.0585175951012555
s(S'investering'
p493
S'regering'
p494
tp495
F1.0
s(S'samenleving'
p496
S'wereld'
p497
tp498
F0.13912352090371843
s(S'hulp'
p499
S'land'
p500
tp501
F1.0
s(S'deel'
p502
S'ontwikkeling'
p503
tp504
F0.549998881840002
s(S'overheid'
p505
S'verantwoordelijkheid'
p506
tp507
F0.37592461082712003
s(S'nederland'
p508
S'regering'
p509
tp510
F0.8673710328828379
s(S'land'
p511
S'organisatie'
p512
tp513
F0.4083729926791255
s(S'mens'
p514
S'school'
p515
tp516
F0.28547069027621585
s(S'onderwijs'
p517
S'werk'
p518
tp519
F0.1866354258403395
s(S'partner'
p520
S'werk'
p521
tp522
F0.31294714079170066
s(S'regering'
p523
S'school'
p524
tp525
F0.37377290438890476
s(S'aandacht'
p526
S'mens'
p527
tp528
F0.5827959491867358
s(S'regering'
p529
S'veiligheid'
p530
tp531
F0.33049378940685287
s(S'land'
p532
S'nota'
p533
tp534
F0.4082617162383387
s(S'regering'
p535
S'verdrag'
p536
tp537
F0.2016659304546272
s(S'bevordeer'
p538
S'ontwikkeling'
p539
tp540
F0.7108257274863644
s(S'ontwerp'
p541
S'wet'
p542
tp543
F0.23167317092121792
s(S'ontwikkeling'
p544
S'wereld'
p545
tp546
F0.08908097898831181
s(S'groei'
p547
S'werkgelegenheid'
p548
tp549
F0.07752864308336392
s(S'mens'
p550
S'uitkering'
p551
tp552
F0.20474469004438292
s(S'land'
p553
S'omstandigheid'
p554
tp555
F0.4356836251379639
s(S'last'
p556
S'maatregel'
p557
tp558
F1.0
s(S'overheid'
p559
S'werk'
p560
tp561
F0.16259138674224025
s(S'groei'
p562
S'zorg'
p563
tp564
F0.04918968377037059
s(S'jeugd'
p565
S'onderwijs'
p566
tp567
F1.0
s(S'jeugd'
p568
S'regering'
p569
tp570
F1.0
s(S'beleid'
p571
S'overleg'
p572
tp573
F0.33110794895732604
s(S'leraar'
p574
S'onderwijs'
p575
tp576
F1.0
s(S'ontwikkeling'
p577
S'oog'
p578
tp579
F0.7491284536521092
s(S'ontwikkeling'
p580
S'verbetering'
p581
tp582
F0.3683366017395744
s(S'samenleving'
p583
S'verandering'
p584
tp585
F0.3018674342529226
s(S'europa'
p586
S'samenwerking'
p587
tp588
F0.5309243809860732
s(S'inspanning'
p589
S'land'
p590
tp591
F1.0
s(S'medewerking'
p592
S'regering'
p593
tp594
F1.0
s(S'gemeenschap'
p595
S'nederland'
p596
tp597
F1.0
s(S'geldmiddeel'
p598
S'toestand'
p599
tp600
F0.6648880689159953
s(S'kans'
p601
S'regering'
p602
tp603
F1.0
s(S'land'
p604
S'opzicht'
p605
tp606
F0.21212666722792142
s(S'onderwijs'
p607
S'vorming'
p608
tp609
F0.0858183705242177
s(S'organisatie'
p610
S'samenwerking'
p611
tp612
F0.9645043130509525
s(S'plan'
p613
S'regering'
p614
tp615
F1.0
s(S'land'
p616
S'middeel'
p617
tp618
F0.6423158802441492
s(S'taak'
p619
S'vervul'
p620
tp621
F0.2759522947224079
s(S'leed'
p622
S'staten-generaal'
p623
tp624
F0.8491644716300115
s(S'land'
p625
S'noodzaak'
p626
tp627
F0.4304071504446153
s(S'economie'
p628
S'werkgelegenheid'
p629
tp630
F0.09221468967516436
s(S'unie'
p631
S'veiligheid'
p632
tp633
F1.0
s(S'beleid'
p634
S'mens'
p635
tp636
F0.7079500871579706
s(S'groei'
p637
S'land'
p638
tp639
F1.0
s(S'regering'
p640
S'uitbreiding'
p641
tp642
F0.2854351924457765
s(S'aantal'
p643
S'beleid'
p644
tp645
F0.9440619481136694
s(S'probleem'
p646
S'verantwoordelijkheid'
p647
tp648
F0.595091408034569
s(S'recht'
p649
S'regering'
p650
tp651
F1.0
s(S'wetboek'
p652
S'wetgeving'
p653
tp654
F1.0
s(S'edel'
p655
S'wetboek'
p656
tp657
F0.052685800615169205
s(S'betekenis'
p658
S'samenwerking'
p659
tp660
F0.5528902409750899
s(S'overheid'
p661
S'regering'
p662
tp663
F1.0
s(S'regering'
p664
S'uitkering'
p665
tp666
F0.2680054469674231
s(S'bedraag'
p667
S'regering'
p668
tp669
F1.0
s(S'aansluiting'
p670
S'regering'
p671
tp672
F0.9958041103093822
s(S'kind'
p673
S'regering'
p674
tp675
F1.0
s(S'belang'
p676
S'land'
p677
tp678
F0.6623756738043427
s(S'ontwikkeling'
p679
S'verband'
p680
tp681
F0.26332893277087216
s(S'bedrijfsleven'
p682
S'overheid'
p683
tp684
F0.6654135797437238
s(S'instelling'
p685
S'regering'
p686
tp687
F1.0
s(S'kans'
p688
S'onderwijs'
p689
tp690
F0.8841728613307538
s(S'belang'
p691
S'wereld'
p692
tp693
F0.038976728203727905
s(S'overheid'
p694
S'probleem'
p695
tp696
F0.6328470801275494
s(S'regering'
p697
S'verband'
p698
tp699
F0.27389528711271627
s(S'handel'
p700
S'regering'
p701
tp702
F0.8957647990625308
s(S'belang'
p703
S'maatregel'
p704
tp705
F0.5570465695102109
s(S'leerkracht'
p706
S'onderwijs'
p707
tp708
F1.0
s(S'regering'
p709
S'rijksbegroting'
p710
tp711
F0.34917356596561716
s(S'bedrijfsleven'
p712
S'land'
p713
tp714
F1.0
s(S'oog'
p715
S'overheid'
p716
tp717
F1.0
s(S'conflict'
p718
S'land'
p719
tp720
F1.0
s(S'gemeent'
p721
S'mens'
p722
tp723
F1.0
s(S'regering'
p724
S''
p725
tp726
F0.007242627469459443
s(S'mens'
p727
S'werknemer'
p728
tp729
F0.06832267260368932
s(S'unie'
p730
S'wereld'
p731
tp732
F0.48956572920883373
s(S'maatregel'
p733
S'veiligheid'
p734
tp735
F0.24968530274107179
s(S'invloed'
p736
S'regering'
p737
tp738
F1.0
s(S'inzet'
p739
S'regering'
p740
tp741
F1.0
s(S'land'
p742
S'vrede'
p743
tp744
F0.08027262918291593
s(S'raad'
p745
S'regering'
p746
tp747
F1.0
s(S'edel'
p748
S'zitting'
p749
tp750
F0.015274943481176207
s(S'conferentie'
p751
S'regering'
p752
tp753
F1.0
s(S'beleid'
p754
S'toekomst'
p755
tp756
F0.20714392792264302
s(S'groei'
p757
S'milieu'
p758
tp759
F0.5012476433173201
s(S'mate'
p760
S'ontwikkeling'
p761
tp762
F1.0
s(S'vrijheid'
p763
S'wereld'
p764
tp765
F0.7757924514999799
s(S'advies'
p766
S'regering'
p767
tp768
F1.0
s(S'ontwikkeling'
p769
S'zorg'
p770
tp771
F0.06500237685889362
s(S'beleid'
p772
S'ontwikkeling'
p773
tp774
F0.5622065524832617
s(S'markt'
p775
S'regering'
p776
tp777
F1.0
s(S'beleid'
p778
S'mogelijkheid'
p779
tp780
F0.5536017001492703
s(S'gebied'
p781
S'verbetering'
p782
tp783
F0.26734243284464454
s(S'noodzakelijk'
p784
S'regering'
p785
tp786
F1.0
s(S'mens'
p787
S'middeel'
p788
tp789
F0.7718124543667747
s(S'maatregel'
p790
S'mogelijkheid'
p791
tp792
F0.7743295849361309
s(S'gebied'
p793
S'vorm'
p794
tp795
F0.12782651176637452
s(S'regering'
p796
S'totstandkoming'
p797
tp798
F0.17150391456502756
s(S'kind'
p799
S'onderwijs'
p800
tp801
F1.0
s(S'aandacht'
p802
S'kwaliteit'
p803
tp804
F0.5308109630812211
s(S'aandacht'
p805
S'volk'
p806
tp807
F0.0934784027897231
s(S'regering'
p808
S'vergroot'
p809
tp810
F0.22373030747901265
s(S'rijk'
p811
S'uitgaf'
p812
tp813
F0.8663105489935418
s(S'betrekking'
p814
S'regering'
p815
tp816
F0.8059768067830756
s(S'gemeenschap'
p817
S'versterking'
p818
tp819
F0.26807864512447843
s(S'europees'
p820
S'regering'
p821
tp822
F1.0
s(S'natie'
p823
S'wereld'
p824
tp825
F0.14114087838035494
s(S'nodig'
p826
S'regering'
p827
tp828
F1.0
s(S'deel'
p829
S'samenwerking'
p830
tp831
F0.3270993401294494
s(S'mogenden'
p832
S'zoo'
p833
tp834
F0.026478388822161313
s(S'mens'
p835
S'nederland'
p836
tp837
F0.8806342570026913
s(S'land'
p838
S'respect'
p839
tp840
F0.1924334090843772
s(S'regering'
p841
S'verlichting'
p842
tp843
F0.1434264861204542
s(S'land'
p844
S'verdrag'
p845
tp846
F0.12821591855833586
s(S'europa'
p847
S'veiligheid'
p848
tp849
F0.283493982113015
s(S'bezitting'
p850
S'overzeesche'
p851
tp852
F0.2228063291905779
s(S'herstel'
p853
S'regering'
p854
tp855
F0.9055761524377979
s(S'regering'
p856
S'vorming'
p857
tp858
F0.06900487425565163
s(S'land'
p859
S'vergroot'
p860
tp861
F0.14216917559571637
s(S'beleid'
p862
S'land'
p863
tp864
F0.8502187105982087
s(S'land'
p865
S'oog'
p866
tp867
F0.49513451035624023
s(S'bedrijf'
p868
S'groei'
p869
tp870
F0.7363212950361523
s(S'regering'
p871
S'staten-generaal'
p872
tp873
F0.22662827255452095
s(S'belang'
p874
S'unie'
p875
tp876
F0.08031986021309864
s(S'belang'
p877
S'welvaart'
p878
tp879
F0.04601853975252589
s(S'perspectief'
p880
S'regering'
p881
tp882
F1.0
s(S'bedrijf'
p883
S'werkgelegenheid'
p884
tp885
F0.057014545621581376
s(S'bedrijfsleven'
p886
S'beleid'
p887
tp888
F1.0
s(S'burger'
p889
S'zorg'
p890
tp891
F0.039039031256869236
s(S'land'
p892
S'volk'
p893
tp894
F0.13357212550402697
s(S'land'
p895
S'mens'
p896
tp897
F0.8330889358392697
s(S'beleid'
p898
S'terrein'
p899
tp900
F0.20908168279500988
s(S'bedrijf'
p901
S'ontwikkeling'
p902
tp903
F0.5568068297040623
s(S'plaats'
p904
S'regering'
p905
tp906
F1.0
s(S'onderwijs'
p907
S'taak'
p908
tp909
F0.5059718734500283
s(S'economische'
p910
S'unie'
p911
tp912
F0.2669897540693712
s(S'nederland'
p913
S'verenigde'
p914
tp915
F0.2068368694464448
s(S'kamer'
p916
S'tweede'
p917
tp918
F0.34156738104220674
s(S'probleem'
p919
S'regering'
p920
tp921
F1.0
s(S'beleid'
p922
S'versterking'
p923
tp924
F0.12529090021426836
s(S'kost'
p925
S'zorg'
p926
tp927
F0.10097463611922218
s(S'mogenden'
p928
S'wetboek'
p929
tp930
F0.08078825568712708
s(S'landbouw'
p931
S'nijverheid'
p932
tp933
F0.5380458953011905
s(S'volk'
p934
S''
p935
tp936
F0.041375865686213154
s(S'land'
p937
S'uitvoering'
p938
tp939
F0.195676078623932
s(S'burger'
p940
S'probleem'
p941
tp942
F0.33793724023505467
s(S'burger'
p943
S'groei'
p944
tp945
F0.7942534059869454
s(S'bedrijf'
p946
S'land'
p947
tp948
F0.8421639689964132
s(S'organisatie'
p949
S'regering'
p950
tp951
F1.0
s(S'mogenden'
p952
S'zitting'
p953
tp954
F0.02342289393740228
s(S'ontwikkeling'
p955
S''
p956
tp957
F0.008314774414805893
s(S'aanpak'
p958
S'regering'
p959
tp960
F0.7187559565316965
s(S'regering'
p961
S'verandering'
p962
tp963
F0.2008365953382428
s(S'regering'
p964
S'verantwoordelijkheid'
p965
tp966
F0.34754394844112296
s(S'regering'
p967
S'tekort'
p968
tp969
F0.24402419567806521
s(S'moeilijkheid'
p970
S'regering'
p971
tp972
F1.0
s(S'werkloosheid'
p973
S''
p974
tp975
F0.11555538808746758
s(S'overheid'
p976
S'zorg'
p977
tp978
F0.07307914543952022
s(S'land'
p979
S'tijd'
p980
tp981
F0.2560858211994949
s(S'ontwikkeling'
p982
S'overheid'
p983
tp984
F0.8897951195389857
s(S'bedrijf'
p985
S'mens'
p986
tp987
F0.7015718545341006
s(S'loon'
p988
S'regering'
p989
tp990
F1.0
s(S'gezin'
p991
S'regering'
p992
tp993
F1.0
s(S'belasting'
p994
S'regering'
p995
tp996
F0.7981267053539556
s(S'beleid'
p997
S'economie'
p998
tp999
F0.6248327226544628
s(S'herziening'
p1000
S'wetsontwerp'
p1001
tp1002
F0.07042644723377232
s(S'mogelijkheid'
p1003
S'regering'
p1004
tp1005
F0.9768057370280239
s(S'samenleving'
p1006
S'zorg'
p1007
tp1008
F0.10155232201157283
s(S'regering'
p1009
S'verlaging'
p1010
tp1011
F0.17071999578147376
s(S'aandacht'
p1012
S'gebied'
p1013
tp1014
F0.6374349592558187
s(S'overheid'
p1015
S'samenleving'
p1016
tp1017
F0.7211760502337874
s(S'regering'
p1018
S'voorstel'
p1019
tp1020
F0.12254996970318961
s(S'regering'
p1021
S'werknemer'
p1022
tp1023
F0.08950374089151739
s(S'verantwoordelijkheid'
p1024
S'wereld'
p1025
tp1026
F0.26727732866230514
s(S'nederland'
p1027
S'samenleving'
p1028
tp1029
F0.5780394644044673
s(S'land'
p1030
S'nederland'
p1031
tp1032
F0.733345426396942
s(S'maatschappij'
p1033
S'samenleving'
p1034
tp1035
F1.0
s(S'aandacht'
p1036
S'verband'
p1037
tp1038
F0.121810347863845
s(S'ontwikkel'
p1039
S'regering'
p1040
tp1041
F1.0
s(S'positie'
p1042
S'regering'
p1043
tp1044
F1.0
s(S'mogelijkheid'
p1045
S'overheid'
p1046
tp1047
F0.9040240359360558
s(S'aantal'
p1048
S'ontwikkeling'
p1049
tp1050
F0.5304942573919202
s(S'werk'
p1051
S'werknemer'
p1052
tp1053
F0.6027977316899533
s(S'land'
p1054
S'overheid'
p1055
tp1056
F0.5881707203689657
s(S'europa'
p1057
S'nederland'
p1058
tp1059
F0.9891176433736709
s(S'land'
p1060
S'sector'
p1061
tp1062
F0.24751364871683867
s(S'overheid'
p1063
S'ruimte'
p1064
tp1065
F0.5026956016812838
s(S'probleem'
p1066
S'wereld'
p1067
tp1068
F0.1585698834093649
s(S'land'
p1069
S'stabiliteit'
p1070
tp1071
F0.1637133825519878
s(S'kwaliteit'
p1072
S'onderwijs'
p1073
tp1074
F0.6760027326376196
s(S'economie'
p1075
S'regering'
p1076
tp1077
F0.8655574590151348
s(S'regering'
p1078
S'vrede'
p1079
tp1080
F0.12624482308254026
s(S'regeling'
p1081
S'wetsontwerp'
p1082
tp1083
F0.09049208498007613
s(S'kans'
p1084
S'werk'
p1085
tp1086
F0.16506368086665882
s(S'ontwikkelingsland'
p1087
S'regering'
p1088
tp1089
F1.0
s(S'inflatie'
p1090
S'regering'
p1091
tp1092
F1.0
s(S'gebruik'
p1093
S'regering'
p1094
tp1095
F1.0
s(S'burger'
p1096
S'mens'
p1097
tp1098
F0.7568371413978678
s(S'basis'
p1099
S'land'
p1100
tp1101
F1.0
s(S'regering'
p1102
S'sector'
p1103
tp1104
F0.3895294351092965
s(S'belang'
p1105
S'taak'
p1106
tp1107
F0.17154778856859335
s(S'nederland'
p1108
S'wereld'
p1109
tp1110
F0.08036737200343362
s(S'bevolking'
p1111
S'land'
p1112
tp1113
F1.0
s(S'regering'
p1114
S'verenigde'
p1115
tp1116
F0.23841996815459923
s(S'uitbreiding'
p1117
S'unie'
p1118
tp1119
F0.6733721786029264
s(S'kunst'
p1120
S'onderwijs'
p1121
tp1122
F1.0
s(S'inkomstenbelasting'
p1123
S'regering'
p1124
tp1125
F1.0
s(S'mens'
p1126
S'ontwikkeling'
p1127
tp1128
F0.794273088663238
s(S'bestrijding'
p1129
S'regering'
p1130
tp1131
F0.6803849379739296
s(S'mens'
p1132
S'scholing'
p1133
tp1134
F0.2376284157956733
s(S'nederland'
p1135
S'verhouding'
p1136
tp1137
F0.1851951677657855
s(S'koninkrijk'
p1138
S'regering'
p1139
tp1140
F1.0
s(S'aandacht'
p1141
S'maatregel'
p1142
tp1143
F0.5885193289852204
s(S'dag'
p1144
S'land'
p1145
tp1146
F1.0
s(S'beleid'
p1147
S'verbetering'
p1148
tp1149
F0.20697167232029293
s(S'onderwijs'
p1150
S'verbetering'
p1151
tp1152
F0.47569733352904114
s(S'mens'
p1153
S'veiligheid'
p1154
tp1155
F0.2522798779316621
s(S'land'
p1156
S'verenigde'
p1157
tp1158
F0.1515825797764273
s(S'gevolg'
p1159
S'ontwikkeling'
p1160
tp1161
F0.7624927052489475
s(S'premie'
p1162
S'regering'
p1163
tp1164
F1.0
s(S'europa'
p1165
S'unie'
p1166
tp1167
F0.16376681745763885
s(S'tijd'
p1168
S'zorg'
p1169
tp1170
F0.168086826140029
s(S'mens'
p1171
S'samenwerking'
p1172
tp1173
F0.47232708491726777
s(S'verenigde'
p1174
S'wereld'
p1175
tp1176
F0.3910350276017959
s(S'gemeenschap'
p1177
S'ontwikkeling'
p1178
tp1179
F1.0
s(S'wet'
p1180
S'zoo'
p1181
tp1182
F0.122001289975975
s(S'bedrijf'
p1183
S'bedrijfsleven'
p1184
tp1185
F0.7455886417243982
s(S'overheid'
p1186
S'werkloosheid'
p1187
tp1188
F0.08269912660934539
s(S'bevordering'
p1189
S'maatregel'
p1190
tp1191
F1.0
s(S'bevordeer'
p1192
S'onderwijs'
p1193
tp1194
F0.5505430811130478
s(S'aantal'
p1195
S'maatregel'
p1196
tp1197
F0.6749554643168468
s(S'land'
p1198
S'vorm'
p1199
tp1200
F0.1163665779126454
s(S'land'
p1201
S'taak'
p1202
tp1203
F0.25906418949591975
s(S'nederland'
p1204
S'plaats'
p1205
tp1206
F0.6869267859922772
s(S'mens'
p1207
S'mogelijkheid'
p1208
tp1209
F0.7825647804688621
s(S'gebied'
p1210
S'nederland'
p1211
tp1212
F0.8050702962023737
s(S'baan'
p1213
S'mens'
p1214
tp1215
F1.0
s(S'ontwikkeling'
p1216
S'volk'
p1217
tp1218
F0.20209354590372677
s(S'ontwikkeling'
p1219
S'toekomst'
p1220
tp1221
F0.36867375409277525
s(S'bouw'
p1222
S'woning'
p1223
tp1224
F0.12435825285482238
s(S'toekomst'
p1225
S'zorg'
p1226
tp1227
F0.176742446069992
s(S'samenwerking'
p1228
S'verenigde'
p1229
tp1230
F0.386148372761382
s(S'doel'
p1231
S'regering'
p1232
tp1233
F0.8441820266298546
s(S'doelstelling'
p1234
S'regering'
p1235
tp1236
F1.0
s(S'land'
p1237
S'natie'
p1238
tp1239
F0.4181395221296112
s(S'afspraak'
p1240
S'regering'
p1241
tp1242
F0.8733457656935361
s(S'inkomen'
p1243
S'regering'
p1244
tp1245
F1.0
s(S'euro'
p1246
S'regering'
p1247
tp1248
F1.0
s(S'deel'
p1249
S'mens'
p1250
tp1251
F0.6928149067265502
s(S'organisatie'
p1252
S'samenleving'
p1253
tp1254
F1.0
s(S'mens'
p1255
S'organisatie'
p1256
tp1257
F0.49067020887874985
s(S'economie'
p1258
S'mens'
p1259
tp1260
F1.0
s(S'maatregel'
p1261
S'werkloosheid'
p1262
tp1263
F0.05779389032577082
s(S'regering'
p1264
S'vraagstuk'
p1265
tp1266
F0.1358058249509301
s(S'aandacht'
p1267
S'mogelijkheid'
p1268
tp1269
F0.4556320480012998
s(S'mens'
p1270
S'verantwoordelijkheid'
p1271
tp1272
F0.265348085834393
s(S'wet'
p1273
S'zorg'
p1274
tp1275
F0.47611219086300866
s(S'ontwikkeling'
p1276
S'tijd'
p1277
tp1278
F0.3874224837127236
s(S'voorbereiding'
p1279
S'wet'
p1280
tp1281
F1.0
s(S'aantal'
p1282
S'overheid'
p1283
tp1284
F0.47198582586252946
s(S'duurzame'
p1285
S'ontwikkeling'
p1286
tp1287
F1.0
s(S'politie'
p1288
S'regering'
p1289
tp1290
F1.0
s(S'criminaliteit'
p1291
S'samenleving'
p1292
tp1293
F0.7963208269126035
s(S'beleid'
p1294
S'werkgelegenheid'
p1295
tp1296
F0.05754272525784448
s(S'regering'
p1297
S'unie'
p1298
tp1299
F0.1908505668799767
s(S'samenleving'
p1300
S'toekomst'
p1301
tp1302
F0.5759054430084971
s(S'niveau'
p1303
S'regering'
p1304
tp1305
F1.0
s(S'betrekking'
p1306
S'vriendschappelijk'
p1307
tp1308
F0.025156629204346328
s(S'middeel'
p1309
S'regering'
p1310
tp1311
F0.9896618452405201
s(S'bezitting'
p1312
S'rust'
p1313
tp1314
F0.33577682829786815
s(S'burger'
p1315
S'organisatie'
p1316
tp1317
F0.3712381571971778
s(S'beleid'
p1318
S'gemeenschap'
p1319
tp1320
F0.46804485476389107
s(S'handhaf'
p1321
S'regering'
p1322
tp1323
F1.0
s(S'maatregel'
p1324
S'samenleving'
p1325
tp1326
F0.5035796184211611
s(S'algemeen'
p1327
S'toestand'
p1328
tp1329
F0.2396872893595362
s(S'burger'
p1330
S'europa'
p1331
tp1332
F0.6740899893864334
s(S'land'
p1333
S'versterking'
p1334
tp1335
F0.14739438822969048
s(S'kader'
p1336
S'land'
p1337
tp1338
F1.0
s(S'aantal'
p1339
S'zorg'
p1340
tp1341
F0.03447714510050551
s(S'onderwijs'
p1342
S'sector'
p1343
tp1344
F0.48377608201214073
s(S'middeel'
p1345
S'toestand'
p1346
tp1347
F0.2946862339362962
s(S'begroting'
p1348
S'regering'
p1349
tp1350
F0.8937685108865363
s(S'land'
p1351
S'mogelijkheid'
p1352
tp1353
F0.6510771371423971
s(S'rijks'
p1354
S'toestand'
p1355
tp1356
F0.7843953467304212
s(S'beleid'
p1357
S'zorg'
p1358
tp1359
F0.03652613114610886
s(S'burger'
p1360
S'werk'
p1361
tp1362
F0.08680978435229517
s(S'financiering'
p1363
S'regering'
p1364
tp1365
F1.0
s(S'land'
p1366
S'zorg'
p1367
tp1368
F0.04296784017395481
s(S'plaats'
p1369
S'samenleving'
p1370
tp1371
F0.8422644968313842
s(S'produktie'
p1372
S'regering'
p1373
tp1374
F1.0
s(S'kans'
p1375
S'mens'
p1376
tp1377
F1.0
s(S'onderwijs'
p1378
S'wetsontwerp'
p1379
tp1380
F0.06903906900069184
s(S'bedrijf'
p1381
S'regering'
p1382
tp1383
F0.5353242163699715
s(S'toekomst'
p1384
S'unie'
p1385
tp1386
F0.4994645990672525
s(S'onderwijs'
p1387
S'school'
p1388
tp1389
F0.46501368922587605
s(S'aandacht'
p1390
S'samenleving'
p1391
tp1392
F0.29641762628233
s(S'deel'
p1393
S'koninkrijk'
p1394
tp1395
F0.28316135548424576
s(S'initiatief'
p1396
S'regering'
p1397
tp1398
F1.0
s(S'veiligheid'
p1399
S'vrede'
p1400
tp1401
F0.38447063438194906
s(S'land'
p1402
S'toestand'
p1403
tp1404
F0.18917436473102656
s(S'democratie'
p1405
S'land'
p1406
tp1407
F1.0
s(S'onderwijs'
p1408
S'versterking'
p1409
tp1410
F0.2879341954145202
s(S'ontwikkeling'
p1411
S'verandering'
p1412
tp1413
F0.19316808929883125
s(S'economie'
p1414
S'land'
p1415
tp1416
F1.0
s(S'land'
p1417
S'uitbreiding'
p1418
tp1419
F0.18141331223926005
s(S'regering'
p1420
S'weg'
p1421
tp1422
F0.09632193926792103
s(S'regering'
p1423
S'tarief'
p1424
tp1425
F0.2248923378837933
s(S'maatregel'
p1426
S'verbetering'
p1427
tp1428
F0.28952674554879176
s(S'grondwet'
p1429
S'zitting'
p1430
tp1431
F0.02204219233328446
s(S'groei'
p1432
S'samenleving'
p1433
tp1434
F0.4849273225773652
s(S'basis'
p1435
S'regering'
p1436
tp1437
F0.7052315668336258
s(S'dienstverlening'
p1438
S'regering'
p1439
tp1440
F1.0
s(S'eis'
p1441
S'regering'
p1442
tp1443
F1.0
s(S'handel'
p1444
S'toestand'
p1445
tp1446
F0.2667895328596035
s(S'belang'
p1447
S'europa'
p1448
tp1449
F0.49130118531635236
s(S'bevordeer'
p1450
S'land'
p1451
tp1452
F1.0
s(S'leven'
p1453
S'wereld'
p1454
tp1455
F0.09420481677165614
s(S'bevordeer'
p1456
S'nederland'
p1457
tp1458
F0.7878205290603779
s(S'economie'
p1459
S'werkloosheid'
p1460
tp1461
F0.06619649234247328
s(S'behoud'
p1462
S'land'
p1463
tp1464
F0.9642196202145176
s(S'omvang'
p1465
S'regering'
p1466
tp1467
F1.0
s(S'beleid'
p1468
S'maatregel'
p1469
tp1470
F0.7150886346335847
s(S'europa'
p1471
S'terrein'
p1472
tp1473
F0.331835247681689
s(S'samenwerking'
p1474
S'vorm'
p1475
tp1476
F0.2963317392328284
s(S'gebied'
p1477
S'voorziening'
p1478
tp1479
F0.12927567940219514
s(S'werk'
p1480
S'zorg'
p1481
tp1482
F0.45220048840239246
s(S'onderwijs'
p1483
S'verantwoordelijkheid'
p1484
tp1485
F0.43139184312782497
s(S'land'
p1486
S'samenleving'
p1487
tp1488
F0.4236466433348296
s(S'groei'
p1489
S'werkloosheid'
p1490
tp1491
F0.05564037566170028
s(S'organisatie'
p1492
S'verantwoordelijkheid'
p1493
tp1494
F0.5418374820150036
s(S'burger'
p1495
S'regering'
p1496
tp1497
F0.5775811777749108
s(S'beroepsonderwij'
p1498
S'onderwijs'
p1499
tp1500
F1.0
s(S'investering'
p1501
S'land'
p1502
tp1503
F1.0
s(S'vrede'
p1504
S'wereld'
p1505
tp1506
F0.7439711204077754
s(S'koninkrijk'
p1507
S'samenwerking'
p1508
tp1509
F1.0
s(S'wetboek'
p1510
S'zitting'
p1511
tp1512
F0.30196744820841787
s(S'toestand'
p1513
S'uitgaf'
p1514
tp1515
F1.0
s(S'ontwikkeling'
p1516
S'versterking'
p1517
tp1518
F0.22299865531499702
s(S'nederland'
p1519
S'taak'
p1520
tp1521
F0.35352852113255007
s(S'overheid'
p1522
S'uitgaf'
p1523
tp1524
F0.38233211949628765
s(S'aandacht'
p1525
S'nederland'
p1526
tp1527
F0.5128657241457549
s(S'regering'
p1528
S'samenleving'
p1529
tp1530
F0.6667453023646136
s(S'regering'
p1531
S'taak'
p1532
tp1533
F0.4075707974422609
s(S'antillen'
p1534
S'land'
p1535
tp1536
F1.0
s(S'economische'
p1537
S'regering'
p1538
tp1539
F1.0
s(S'betekenis'
p1540
S'ontwikkeling'
p1541
tp1542
F0.9294394044634595
s(S'belang'
p1543
S'burger'
p1544
tp1545
F0.7291051893761472
s(S'beleid'
p1546
S'overheid'
p1547
tp1548
F0.5000454230756542
s(S'veiligheid'
p1549
S'zorg'
p1550
tp1551
F0.20510263574895496
s(S'ontwikkeling'
p1552
S'verhouding'
p1553
tp1554
F0.2053332324877368
s(S'behandeling'
p1555
S'regering'
p1556
tp1557
F1.0
s(S'regering'
p1558
S'wet'
p1559
tp1560
F0.14212582287309194
s(S'middeel'
p1561
S'onderwijs'
p1562
tp1563
F0.797483023937431
s(S'nederland'
p1564
S'veiligheid'
p1565
tp1566
F0.28667792922243795
s(S'middeel'
p1567
S'uitgaf'
p1568
tp1569
F0.35013472964177966
s(S'aandacht'
p1570
S'zorg'
p1571
tp1572
F0.030070783267347287
s(S'mens'
p1573
S'werkgelegenheid'
p1574
tp1575
F0.08132948954998909
s(S'koninkrijk'
p1576
S'land'
p1577
tp1578
F1.0
s(S'cultuur'
p1579
S'mens'
p1580
tp1581
F1.0
s(S'europa'
p1582
S'wereld'
p1583
tp1584
F0.07942580823073858
s(S'onderwijs'
p1585
S'zoo'
p1586
tp1587
F0.021428038789725944
s(S'ondernemer'
p1588
S'regering'
p1589
tp1590
F1.0
s(S'hooger'
p1591
S'onderwijs'
p1592
tp1593
F1.0
s(S'gevolg'
p1594
S'regering'
p1595
tp1596
F0.7328266821388512
s(S'onderwijs'
p1597
S'ruimte'
p1598
tp1599
F0.5773699453585411
s(S'maatregel'
p1600
S'nederland'
p1601
tp1602
F0.8713852181153647
s(S'maatregel'
p1603
S'overleg'
p1604
tp1605
F0.46313717442709
s(S'regering'
p1606
S'verhouding'
p1607
tp1608
F0.21342099165225933
s(S'beleid'
p1609
S'herstel'
p1610
tp1611
F0.5970190774722742
s(S'maatregel'
p1612
S'wet'
p1613
tp1614
F0.10738155619698307
s(S'burger'
p1615
S'rechtsstaat'
p1616
tp1617
F0.1903704715461376
s(S'bevordeer'
p1618
S'samenwerking'
p1619
tp1620
F0.42282046067659934
s(S'onderwijs'
p1621
S'student'
p1622
tp1623
F0.1643795651850654
s(S'europa'
p1624
S'verdrag'
p1625
tp1626
F0.17312654460915528
s(S'inspanning'
p1627
S'terrein'
p1628
tp1629
F0.35194343251016974
s(S'land'
p1630
S'suriname'
p1631
tp1632
F0.10767271094194637
s(S'grondwet'
p1633
S'mogenden'
p1634
tp1635
F0.9440112561933933
s(S'regering'
p1636
S'vrijheid'
p1637
tp1638
F0.12094183523713524
s(S'nederland'
p1639
S'werk'
p1640
tp1641
F0.13036340748287087
s(S'aandacht'
p1642
S'tijd'
p1643
tp1644
F0.17915974963382117
s(S'invloed'
p1645
S'toestand'
p1646
tp1647
F0.36705901960845455
s(S'natie'
p1648
S'verenigde'
p1649
tp1650
F0.36414992744397484
s(S'infrastructuur'
p1651
S'regering'
p1652
tp1653
F1.0
s(S'onderwijs'
p1654
S'zorg'
p1655
tp1656
F0.0839899198327741
s(S'belang'
p1657
S'landbouw'
p1658
tp1659
F0.36661189657886784
s(S'belang'
p1660
S'gebied'
p1661
tp1662
F0.603270348020023
s(S'regering'
p1663
S'respect'
p1664
tp1665
F0.3027480885672639
s(S'belang'
p1666
S'onderwijs'
p1667
tp1668
F0.3391440383645522
s(S'onderwijs'
p1669
S'voorziening'
p1670
tp1671
F0.22996689669129342
s(S'aanzien'
p1672
S'regering'
p1673
tp1674
F0.7907361272687767
s(S'kind'
p1675
S'zorg'
p1676
tp1677
F0.09489610455923182
s(S'land'
p1678
S'terrein'
p1679
tp1680
F0.24596199665208773
s(S'burger'
p1681
S'mogelijkheid'
p1682
tp1683
F0.5917581851158862
s(S'verenigde'
p1684
S'vrede'
p1685
tp1686
F0.5341707792061146
s(S'stand'
p1687
S'wet'
p1688
tp1689
F0.33517296466516583
s(S'nederlandsche'
p1690
S'volk'
p1691
tp1692
F0.4647866419417376
s(S'kwaliteit'
p1693
S'zorg'
p1694
tp1695
F0.056728317013678045
s(S'land'
p1696
S'welzijn'
p1697
tp1698
F0.03666164310853825
s(S'regering'
p1699
S'zorg'
p1700
tp1701
F0.06764266375638776
s(S'betrekking'
p1702
S'ontwikkeling'
p1703
tp1704
F0.8386149258618978
s(S'mogendheid'
p1705
S'vriendschappelijk'
p1706
tp1707
F0.06774825436678773
s(S'regering'
p1708
S'wetsvoorstel'
p1709
tp1710
F0.03991337548000107
s(S'politie'
p1711
S'veiligheid'
p1712
tp1713
F0.7008951791351431
s(S'aandacht'
p1714
S'ontwikkeling'
p1715
tp1716
F0.4627114588344906
s(S'leven'
p1717
S'ontwikkeling'
p1718
tp1719
F1.0
s(S'maand'
p1720
S'regering'
p1721
tp1722
F1.0
s(S'samenwerking'
p1723
S'toekomst'
p1724
tp1725
F0.6202816730911438
s(S'regering'
p1726
S'n'
p1727
tp1728
F0.016154775641290503
s(S'gebied'
p1729
S'versterking'
p1730
tp1731
F0.16185486084675238
s(S'ontwikkeling'
p1732
S'uitvoering'
p1733
tp1734
F0.29611226556652587
s(S'land'
p1735
S'maatregel'
p1736
tp1737
F0.8411467453608173
s(S'inzet'
p1738
S'nederland'
p1739
tp1740
F1.0
s(S'nederland'
p1741
S'overleg'
p1742
tp1743
F0.5315015148707242
s(S'maatregel'
p1744
S'termijn'
p1745
tp1746
F0.27012559645985523
s(S'nederland'
p1747
S'vrede'
p1748
tp1749
F0.10956999309946952
s(S'nederland'
p1750
S'probleem'
p1751
tp1752
F0.5075932492027997
s(S'regering'
p1753
S'welvaart'
p1754
tp1755
F0.1093099756950347
s(S'bepaling'
p1756
S'wijziging'
p1757
tp1758
F0.05552044432967729
s(S'burger'
p1759
S'werkgelegenheid'
p1760
tp1761
F0.061504809438052935
s(S'beleid'
p1762
S'nota'
p1763
tp1764
F0.34712572081490234
s(S'burger'
p1765
S'verantwoordelijkheid'
p1766
tp1767
F0.2007305084287793
s(S'nederland'
p1768
S'steun'
p1769
tp1770
F0.308177559781288
s(S'economische'
p1771
S'land'
p1772
tp1773
F1.0
s(S'bezitting'
p1774
S'toestand'
p1775
tp1776
F0.3855557022790307
s(S'antillen'
p1777
S'verhouding'
p1778
tp1779
F0.3129459976847274
s(S'regeling'
p1780
S'voorziening'
p1781
tp1782
F0.3012492343503591
s(S'groei'
p1783
S'ontwikkeling'
p1784
tp1785
F0.7571184439778048
s(S'belang'
p1786
S'regeling'
p1787
tp1788
F0.25904884633084974
s(S'maatregel'
p1789
S'werk'
p1790
tp1791
F0.11358277633712287
s(S'antillen'
p1792
S'ontwikkeling'
p1793
tp1794
F1.0
s(S'land'
p1795
S'vervoer'
p1796
tp1797
F0.09706609313800751
s(S'belang'
p1798
S'handel'
p1799
tp1800
F0.4699888621213808
s(S'onderwijs'
p1801
S'vernieuwing'
p1802
tp1803
F0.25380064583649786
s(S'europa'
p1804
S'land'
p1805
tp1806
F1.0
s(S'middeel'
p1807
S'zoo'
p1808
tp1809
F0.017089587300046297
s(S'grondwet'
p1810
S'regering'
p1811
tp1812
F1.0
s(S'staten'
p1813
S'verenigde'
p1814
tp1815
F0.8392683810794356
s(S'mens'
p1816
S'vorm'
p1817
tp1818
F0.1398271828565556
s(S'belang'
p1819
S'wet'
p1820
tp1821
F0.05981891116240713
s(S'land'
p1822
S'waarde'
p1823
tp1824
F0.053984679062941326
s(S'aantal'
p1825
S'nederland'
p1826
tp1827
F0.5879947043746053
s(S'gebied'
p1828
S'land'
p1829
tp1830
F1.0
s(S'europa'
p1831
S'ontwikkeling'
p1832
tp1833
F0.8915766964345624
s(S'samenwerking'
p1834
S'versterking'
p1835
tp1836
F0.3752535773518861
s(S'koninkrijk'
p1837
S'overleg'
p1838
tp1839
F1.0
s(S'bedrijfsleven'
p1840
S'ontwikkeling'
p1841
tp1842
F0.7477512449818677
s(S'regel'
p1843
S'regering'
p1844
tp1845
F1.0
s(S'herziening'
p1846
S'wetboek'
p1847
tp1848
F0.06670232938400432
s(S'milieu'
p1849
S'regering'
p1850
tp1851
F1.0
s(S'kwaliteit'
p1852
S'regering'
p1853
tp1854
F0.8387547335568672
s(S'land'
p1855
S'verandering'
p1856
tp1857
F0.12765777919508717
s(S'deel'
p1858
S'regering'
p1859
tp1860
F0.5287383134794094
s(S'invoering'
p1861
S'onderwijs'
p1862
tp1863
F0.9427658689717826
s(S'ontwikkeling'
p1864
S'werkgelegenheid'
p1865
tp1866
F0.10244157480412974
s(S'bevordeer'
p1867
S'mens'
p1868
tp1869
F0.8953131575235772
s(S'inspanning'
p1870
S'samenleving'
p1871
tp1872
F0.6061771035644187
s(S'maatregel'
p1873
S'mens'
p1874
tp1875
F0.9903998935098792
s(S'economische'
p1876
S'gemeenschap'
p1877
tp1878
F1.0
s(S'algemeen'
p1879
S'belang'
p1880
tp1881
F1.0
s(S'belang'
p1882
S'zorg'
p1883
tp1884
F0.02846082296988233
s(S'bijdrage'
p1885
S'land'
p1886
tp1887
F1.0
s(S'groei'
p1888
S'regering'
p1889
tp1890
F0.7276592161702851
s(S'belang'
p1891
S'verbetering'
p1892
tp1893
F0.16120490827333828
s(S'ontwerp'
p1894
S'wetboek'
p1895
tp1896
F0.08577474296800908
s(S'herstel'
p1897
S'nederland'
p1898
tp1899
F1.0
s(S'evenwicht'
p1900
S'land'
p1901
tp1902
F1.0
s(S'hervorming'
p1903
S'regering'
p1904
tp1905
F1.0
s(S'behoud'
p1906
S'nederland'
p1907
tp1908
F0.7066167575131628
s(S'aandacht'
p1909
S'wet'
p1910
tp1911
F0.06319427372892122
s(S'betrekking'
p1912
S'land'
p1913
tp1914
F1.0
s(S'overheid'
p1915
S''
p1916
tp1917
F0.009352639700498627
s(S'maatregel'
p1918
S'zorg'
p1919
tp1920
F0.05110217194129404
s(S'burger'
p1921
S'samenleving'
p1922
tp1923
F0.3851035548235075
s(S'burger'
p1924
S'maatregel'
p1925
tp1926
F0.7641751866679533
s(S'structuur'
p1927
S'versterking'
p1928
tp1929
F0.7508053250244654
s(S'land'
p1930
S'plaats'
p1931
tp1932
F0.5034038830369691
s(S'regering'
p1933
S'verzekering'
p1934
tp1935
F0.19809478636271372
s(S'aandacht'
p1936
S'beleid'
p1937
tp1938
F0.823229889012157
s(S'land'
p1939
S'wereld'
p1940
tp1941
F0.05889188226473844
s(S'beleid'
p1942
S'uitvoering'
p1943
tp1944
F0.16638086031065802
s(S'behoud'
p1945
S'zorg'
p1946
tp1947
F0.04143408052686018
s(S'regeling'
p1948
S'zorg'
p1949
tp1950
F0.10992424432311323
s(S'regering'
p1951
S'versterking'
p1952
tp1953
F0.23189826311416248
s(S'europa'
p1954
S'maastricht'
p1955
tp1956
F0.33871845574013676
s(S'beleid'
p1957
S'regering'
p1958
tp1959
F0.5404562827596747
s(S'regering'
p1960
S'toekomst'
p1961
tp1962
F0.3835691732442849
s(S'leven'
p1963
S'regering'
p1964
tp1965
F1.0
s(S'land'
p1966
S'werk'
p1967
tp1968
F0.09552444605775356
s(S'behoud'
p1969
S'regering'
p1970
tp1971
F0.6128146853451155
s(S'belang'
p1972
S'veiligheid'
p1973
tp1974
F0.13907112895329818
s(S'mens'
p1975
S'werk'
p1976
tp1977
F0.11485512565941088
s(S'democratie'
p1978
S'regering'
p1979
tp1980
F1.0
s(S'nederland'
p1981
S'suriname'
p1982
tp1983
F0.14697976079522113
s(S'regering'
p1984
S'voorziening'
p1985
tp1986
F0.18520120555304767
s(S'bijdraag'
p1987
S'land'
p1988
tp1989
F1.0
s(S'maatregel'
p1990
S'werkgelegenheid'
p1991
tp1992
F0.08049273762738532
s(S'land'
p1993
S'stand'
p1994
tp1995
F0.26984367657529057
s(S'antillen'
p1996
S'nederland'
p1997
tp1998
F1.0
s(S'maatschappij'
p1999
S'regering'
p2000
tp2001
F1.0
s(S'investeer'
p2002
S'regering'
p2003
tp2004
F1.0
s(S'ontwikkeling'
p2005
S'verenigde'
p2006
tp2007
F0.2292559134803366
s(S'regering'
p2008
S'spanning'
p2009
tp2010
F0.3368362738746764
s(S'regering'
p2011
S'welzijn'
p2012
tp2013
F0.0576660844345085
s(S'regering'
p2014
S'terrein'
p2015
tp2016
F0.3870284845821889
s(S'bepaling'
p2017
S'wet'
p2018
tp2019
F0.15035855168978554
s(S'land'
p2020
S'voorziening'
p2021
tp2022
F0.11768035748334557
s(S'heden'
p2023
S'regering'
p2024
tp2025
F1.0
s(S'gevolg'
p2026
S'land'
p2027
tp2028
F1.0
s(S'beroep'
p2029
S'regering'
p2030
tp2031
F0.9283335235205736
s(S'koopkracht'
p2032
S'regering'
p2033
tp2034
F1.0
s(S'burger'
p2035
S'ruimte'
p2036
tp2037
F0.26839443434360527
s(S'kwaliteit'
p2038
S'mens'
p2039
tp2040
F1.0
s(S'wet'
p2041
S'wetboek'
p2042
tp2043
F0.37423987228312655
s(S'beleid'
p2044
S'kabinet'
p2045
tp2046
F0.3930259848923748
s(S'bevolking'
p2047
S'ontwikkeling'
p2048
tp2049
F0.7884187824487375
s(S'onderwijs'
p2050
S'volk'
p2051
tp2052
F0.2609843589659583
s(S'land'
p2053
S'milieu'
p2054
tp2055
F0.4377697140636377
s(S'land'
p2056
S'onderwijs'
p2057
tp2058
F0.5120221415222347
s(S'inspanning'
p2059
S'ontwikkeling'
p2060
tp2061
F0.9458814251053506
s(S'beleid'
p2062
S'onderwijs'
p2063
tp2064
F0.4352270042351284
s(S'kans'
p2065
S'land'
p2066
tp2067
F1.0
s(S'regering'
p2068
S'woningbouw'
p2069
tp2070
F0.06374595430663374
s(S'middeel'
p2071
S'ontwikkeling'
p2072
tp2073
F1.0
s(S'bedrijf'
p2074
S'overheid'
p2075
tp2076
F0.4956287616181159
s(S'aandacht'
p2077
S'verbetering'
p2078
tp2079
F0.17036430225788837
s(S'samenleving'
p2080
S'werk'
p2081
tp2082
F0.22587489164587213
s(S'burger'
p2083
S'veiligheid'
p2084
tp2085
F0.19083396034346323
s(S'deel'
p2086
S'nederland'
p2087
tp2088
F0.6096608903299998
s(S'wet'
p2089
S'wetgeving'
p2090
tp2091
F0.5346713263106595
s(S'deel'
p2092
S'maatregel'
p2093
tp2094
F0.6997772940339945
s(S'invoering'
p2095
S'wet'
p2096
tp2097
F0.16627399403632737
s(S'samenwerking'
p2098
S'wereld'
p2099
tp2100
F0.14993268505978288
s(S'aandacht'
p2101
S'probleem'
p2102
tp2103
F0.2602551199372555
s(S'grondwet'
p2104
S'wet'
p2105
tp2106
F0.2052911298221033
s(S'middeel'
p2107
S'veiligheid'
p2108
tp2109
F0.3271152205206314
s(S'land'
p2110
S'vraagstuk'
p2111
tp2112
F0.08629452571520542
s(S'belang'
p2113
S'oog'
p2114
tp2115
F0.32789628600925763
s(S'hand'
p2116
S'land'
p2117
tp2118
F1.0
s(S'belang'
p2119
S'ontwikkeling'
p2120
tp2121
F0.43791085859847867
s(S'nederland'
p2122
S'welvaart'
p2123
tp2124
F0.09482413940602719
s(S'gezondheidszorg'
p2125
S'zorg'
p2126
tp2127
F0.0898773307824121
s(S'leven'
p2128
S'samenleving'
p2129
tp2130
F0.67790619752213
s(S'regering'
p2131
S'werk'
p2132
tp2133
F0.15034631662721998
s(S'nederland'
p2134
S'zorg'
p2135
tp2136
F0.05862960667071695
s(S'behoeve'
p2137
S'regering'
p2138
tp2139
F0.9672929732429425
s(S'regering'
p2140
S'steun'
p2141
tp2142
F0.35532582453945416
s(S'handel'
p2143
S'scheepvaart'
p2144
tp2145
F0.23302186633326086
s(S'land'
p2146
S'leven'
p2147
tp2148
F0.6257799756522349
s(S'gemeenschap'
p2149
S'land'
p2150
tp2151
F1.0
s(S'behoud'
p2152
S'mens'
p2153
tp2154
F0.8030404771589609
s(S'regering'
p2155
S'woning'
p2156
tp2157
F0.09094894402519932
s(S'regering'
p2158
S'zittingsjaar'
p2159
tp2160
F0.014282014455543586
s(S'mens'
p2161
S'voorziening'
p2162
tp2163
F0.14145300862078727
s(S'belang'
p2164
S'middeel'
p2165
tp2166
F0.4254089009589741
s(S'regering'
p2167
S'suriname'
p2168
tp2169
F0.16940907778963868
s(S'werkgelegenheid'
p2170
S'werknemer'
p2171
tp2172
F0.8528214737756907
s(S'maatregel'
p2173
S'toekomst'
p2174
tp2175
F0.28971278210783236
s(S'markt'
p2176
S'unie'
p2177
tp2178
F0.3186304063940832
s(S'ontwerp'
p2179
S'regering'
p2180
tp2181
F1.0
s(S'onderzoek'
p2182
S'ontwikkeling'
p2183
tp2184
F1.0
s(S'indonesi'
p2185
S'nederland'
p2186
tp2187
F1.0
s(S'burger'
p2188
S'ontwikkeling'
p2189
tp2190
F0.6007014068776895
s(S'land'
p2191
S'positie'
p2192
tp2193
F0.30575726254652175
s(S'land'
p2194
S'unie'
p2195
tp2196
F0.12131894396476987
s(S'belang'
p2197
S'groei'
p2198
tp2199
F0.5788050547419488
s(S'edel'
p2200
S'vergadering'
p2201
tp2202
F0.26870583639403084
s(S'overheid'
p2203
S'terrein'
p2204
tp2205
F0.4184546315116573
s(S'edel'
p2206
S'zoo'
p2207
tp2208
F0.017277769890912096
s(S'land'
p2209
S'verband'
p2210
tp2211
F0.1740453924937897
s(S'regering'
p2212
S'wetsontwerp'
p2213
tp2214
F0.05557915593443054
s(S'regering'
p2215
S'werking'
p2216
tp2217
F0.053072812851716715
s(S'overheid'
p2218
S'vorm'
p2219
tp2220
F0.19804055350846633
s(S'kabinet'
p2221
S'land'
p2222
tp2223
F1.0
s(S'onderzoek'
p2224
S'regering'
p2225
tp2226
F1.0
s(S'grondwet'
p2227
S'herziening'
p2228
tp2229
F1.0
s(S'mens'
p2230
S'regering'
p2231
tp2232
F0.763815629053325
s(S'regering'
p2233
S'waarde'
p2234
tp2235
F0.08496528616396994
s(S'beleid'
p2236
S'verantwoordelijkheid'
p2237
tp2238
F0.18772613946325295
s(S'economie'
p2239
S'samenleving'
p2240
tp2241
F0.576912919056502
s(S'regering'
p2242
S'samenwerking'
p2243
tp2244
F0.6189608210315183
s(S'land'
p2245
S'structuur'
p2246
tp2247
F0.19765330493534045
s(S'groei'
p2248
S'overheid'
p2249
tp2250
F0.673402743979923
s(S'aandacht'
p2251
S'belang'
p2252
tp2253
F1.0
s(S'land'
p2254
S'periode'
p2255
tp2256
F0.22251533838632004
s(S'land'
p2257
S'werkloosheid'
p2258
tp2259
F0.048594453212063925
s(S'belang'
p2260
S'werkgelegenheid'
p2261
tp2262
F0.04482465235754349
s(S'indonesi'
p2263
S'regering'
p2264
tp2265
F1.0
s(S'begeleiding'
p2266
S'regering'
p2267
tp2268
F1.0
s(S'staten-generaal'
p2269
S'zitting'
p2270
tp2271
F0.06765352302379782
s(S'integratie'
p2272
S'land'
p2273
tp2274
F1.0
s(S'belang'
p2275
S'bevordering'
p2276
tp2277
F0.5301679406247193
s(S'koninkrijk'
p2278
S'statuut'
p2279
tp2280
F0.18686435565734283
s(S'landbouw'
p2281
S'ontwikkeling'
p2282
tp2283
F1.0
s(S'aantal'
p2284
S'werkloosheid'
p2285
tp2286
F0.03899118731032629
s(S'zitting'
p2287
S'zoo'
p2288
tp2289
F1.0
s(S'regering'
p2290
S'structuur'
p2291
tp2292
F0.310994815551316
s(S'betekenis'
p2293
S'land'
p2294
tp2295
F1.0
s(S'bedrijfsleven'
p2296
S'maatregel'
p2297
tp2298
F0.9510677701096804
s(S'advies'
p2299
S'raad'
p2300
tp2301
F0.5822456443922506
s(S'man'
p2302
S'vrouw'
p2303
tp2304
F0.22608578588955008
s(S'aandacht'
p2305
S'versterking'
p2306
tp2307
F0.10311312461912685
s(S'gevolg'
p2308
S'nederland'
p2309
tp2310
F0.8452563810318324
s(S'woning'
p2311
S'woningbouw'
p2312
tp2313
F0.7267701584404603
s(S'regering'
p2314
S'verhoog'
p2315
tp2316
F0.1350602546277965
s(S'edel'
p2317
S'wet'
p2318
tp2319
F0.14221027089347515
s(S'regering'
p2320
S'uitgaf'
p2321
tp2322
F0.353395068951407
s(S'gemeent'
p2323
S'provincie'
p2324
tp2325
F0.3434930577646988
s(S'gemeent'
p2326
S'regering'
p2327
tp2328
F0.8430194322823162
s(S'samenleving'
p2329
S'veiligheid'
p2330
tp2331
F0.49637422730821257
s(S'kans'
p2332
S'mogelijkheid'
p2333
tp2334
F1.0
s(S'burger'
p2335
S'taak'
p2336
tp2337
F0.2353770107476989
s(S'terrein'
p2338
S'versterking'
p2339
tp2340
F0.6012941280913967
s(S'mens'
p2341
S'zorg'
p2342
tp2343
F0.05165122739811972
s(S'eis'
p2344
S'onderwijs'
p2345
tp2346
F0.9095951163874952
s(S'nijverheid'
p2347
S'tak'
p2348
tp2349
F0.47381282620103604
s(S'antillen'
p2350
S'suriname'
p2351
tp2352
F0.2486721136764875
s(S'aard'
p2353
S'betrekking'
p2354
tp2355
F1.0
s(S'ontwikkeling'
p2356
S'verantwoordelijkheid'
p2357
tp2358
F0.334135199300086
s(S'europa'
p2359
S'vrede'
p2360
tp2361
F0.10832393314222245
s(S'leven'
p2362
S'onderwijs'
p2363
tp2364
F0.8193638202093457
s(S'integratie'
p2365
S'unie'
p2366
tp2367
F0.2524845760452649
s(S'bedrijf'
p2368
S'werk'
p2369
tp2370
F0.0804848578814252
s(S'land'
p2371
S'situatie'
p2372
tp2373
F0.22634747026746047
s(S'bedrijfsleven'
p2374
S'regering'
p2375
tp2376
F0.7186381856676434
s(S'ontwikkeling'
p2377
S'organisatie'
p2378
tp2379
F0.6178855180740163
s(S'hand'
p2380
S'regering'
p2381
tp2382
F1.0
s(S'economie'
p2383
S'overheid'
p2384
tp2385
F0.8012052070550931
s(S'maatregel'
p2386
S''
p2387
tp2388
F0.006536361241256648
s(S'duurzame'
p2389
S'regering'
p2390
tp2391
F1.0
s(S'aard'
p2392
S'vriendschappelijk'
p2393
tp2394
F0.03266931919697498
s(S'regeling'
p2395
S'wet'
p2396
tp2397
F0.23123938117426407
s(S'oog'
p2398
S'samenleving'
p2399
tp2400
F0.85674814756292
s(S'regering'
p2401
S'situatie'
p2402
tp2403
F0.35621368955820937
s(S'invoering'
p2404
S'regering'
p2405
tp2406
F1.0
s(S'bijdraag'
p2407
S'regering'
p2408
tp2409
F0.929883769267945
s(S'edel'
p2410
S'loop'
p2411
tp2412
F0.5741603782110446
s(S'burger'
p2413
S'economie'
p2414
tp2415
F0.6678690218218163
s(S'regering'
p2416
S'schep'
p2417
tp2418
F0.31259777468463834
s(S'belang'
p2419
S'beleid'
p2420
tp2421
F0.7791325168163376
s(S'onderneming'
p2422
S'regering'
p2423
tp2424
F1.0
s(S'beleid'
p2425
S'gebied'
p2426
tp2427
F0.7743428113500895
s(S'nederland'
p2428
S'vorm'
p2429
tp2430
F0.15881050100274788
s(S'probleem'
p2431
S'zorg'
p2432
tp2433
F0.11570252063982463
s(S'mogelijkheid'
p2434
S'werk'
p2435
tp2436
F0.14691077316012852
s(S'recht'
p2437
S'samenleving'
p2438
tp2439
F0.9976274435854028
s(S'land'
p2440
S'wet'
p2441
tp2442
F0.09031567513184018
s(S'overheid'
p2443
S'verbetering'
p2444
tp2445
F0.41411270196876343
s(S'antillen'
p2446
S'koninkrijk'
p2447
tp2448
F0.7856792011139381
s(S'mens'
p2449
S'recht'
p2450
tp2451
F0.5114351205212998
s(S'ingang'
p2452
S'regering'
p2453
tp2454
F1.0
s(S'kracht'
p2455
S'land'
p2456
tp2457
F1.0
s(S'ontwikkeling'
p2458
S'probleem'
p2459
tp2460
F0.5628725555957957
s(S'land'
p2461
S'steun'
p2462
tp2463
F0.22581505543095273
s(S'wet'
p2464
S'wijziging'
p2465
tp2466
F0.3734201943479992
s(S'inkomen'
p2467
S'land'
p2468
tp2469
F1.0
s(S'herziening'
p2470
S'wet'
p2471
tp2472
F0.18008856507034002
s(S'ontwikkeling'
p2473
S'voorziening'
p2474
tp2475
F0.17805697604481094
s(S'indien'
p2476
S'regering'
p2477
tp2478
F1.0
s(S'samenleving'
p2479
S'vorm'
p2480
tp2481
F0.275124483466424
s(S'land'
p2482
S'probleem'
p2483
tp2484
F0.37204826689216225
s(S'bestrijding'
p2485
S'maatregel'
p2486
tp2487
F0.9007702801290878
s(S'bedrijf'
p2488
S'samenleving'
p2489
tp2490
F0.3567951639011244
s(S'mate'
p2491
S'regering'
p2492
tp2493
F1.0
s(S'natie'
p2494
S'ontwikkeling'
p2495
tp2496
F1.0
s(S'aanpassing'
p2497
S'regering'
p2498
tp2499
F0.7967673702635142
s(S'land'
p2500
S'verhouding'
p2501
tp2502
F0.13568600956543092
s(S'herstel'
p2503
S'werkgelegenheid'
p2504
tp2505
F0.09651883312797795
s(S'land'
p2506
S'ontwikkelingsland'
p2507
tp2508
F0.24451930146191905
s(S'land'
p2509
S'ruimte'
p2510
tp2511
F0.295312722699563
s(S'cultuur'
p2512
S'regering'
p2513
tp2514
F1.0
s(S'belang'
p2515
S'overleg'
p2516
tp2517
F0.25792726062204235
s(S'aantal'
p2518
S'werk'
p2519
tp2520
F0.0766541393077848
s(S'belang'
p2521
S'samenwerking'
p2522
tp2523
F0.26046857235942295
s(S'nijverheid'
p2524
S'toestand'
p2525
tp2526
F0.6382954516407086
s(S'onderwijs'
p2527
S'opleiding'
p2528
tp2529
F0.4316815541187225
s(S'groei'
p2530
S'werknemer'
p2531
tp2532
F0.06510376261147317
s(S'onderwijs'
p2533
S'wijziging'
p2534
tp2535
F0.06515883413800098
s(S'mogelijkheid'
p2536
S'onderwijs'
p2537
tp2538
F0.7869523273220776
s(S'onderwijs'
p2539
S'regeling'
p2540
tp2541
F0.7646109586558433
s(S'belang'
p2542
S'mens'
p2543
tp2544
F0.5514945027405137
s(S'ontwikkeling'
p2545
S'regering'
p2546
tp2547
F0.9618201731753773
s(S'aandacht'
p2548
S'onderwijs'
p2549
tp2550
F0.3583977589435798
s(S'groei'
p2551
S'werk'
p2552
tp2553
F0.1093918230588601
s(S'kennis'
p2554
S'regering'
p2555
tp2556
F1.0
s(S'bijdrage'
p2557
S'samenleving'
p2558
tp2559
F0.5270350953089891
s(S'groei'
p2560
S'nederland'
p2561
tp2562
F0.8391126962003255
s(S'deel'
p2563
S'welvaart'
p2564
tp2565
F0.057808133987797876
s(S'groep'
p2566
S'regering'
p2567
tp2568
F1.0
s(S'regering'
p2569
S'vernieuwing'
p2570
tp2571
F0.20424927416358946
s(S'samenwerking'
p2572
S'verdrag'
p2573
tp2574
F0.3268279831351277
s(S'milieu'
p2575
S'ontwikkeling'
p2576
tp2577
F1.0
s(S'maatregel'
p2578
S'voorziening'
p2579
tp2580
F0.1399555730626379
s(S'onderwijs'
p2581
S'wet'
p2582
tp2583
F0.17656116832168597
s(S'werkgelegenheid'
p2584
S'werkloosheid'
p2585
tp2586
F0.7305366395101095
s(S'deel'
p2587
S'onderwijs'
p2588
tp2589
F0.42590419680897507
s(S'land'
p2590
S''
p2591
tp2592
F0.005495639507098475
s(S'regering'
p2593
S'verhoging'
p2594
tp2595
F0.19663157039703916
s(S'beleid'
p2596
S'groei'
p2597
tp2598
F0.7431942534568056
s(S'bouw'
p2599
S'regering'
p2600
tp2601
F1.0
s(S'onderwijs'
p2602
S'samenleving'
p2603
tp2604
F0.8279566506754922
s(S'beleid'
p2605
S'middeel'
p2606
tp2607
F0.5460400686977349
s(S'opening'
p2608
S'zitting'
p2609
tp2610
F0.06213923030562232
s(S'regeling'
p2611
S'regering'
p2612
tp2613
F1.0
s(S'cultuur'
p2614
S'onderwijs'
p2615
tp2616
F0.9043041758640255
s(S'natie'
p2617
S'vrede'
p2618
tp2619
F0.1925655232204725
s(S'mens'
p2620
S'onderwijs'
p2621
tp2622
F0.6153209044472285
s(S'aantal'
p2623
S'regering'
p2624
tp2625
F0.5099772049152083
s(S'wet'
p2626
S'zitting'
p2627
tp2628
F0.10806184404835364
s(S'onderwijs'
p2629
S'onderzoek'
p2630
tp2631
F0.8045301730559481
s(S'oog'
p2632
S'regering'
p2633
tp2634
F1.0
s(S'maatregel'
p2635
S'regering'
p2636
tp2637
F0.7560087262442512
s(S'belang'
p2638
S'volk'
p2639
tp2640
F0.08848191853962992
s(S'regering'
p2641
S'werkloosheid'
p2642
tp2643
F0.076444853686784
s(S'herstel'
p2644
S'ontwikkeling'
p2645
tp2646
F0.9421181195689656
s(S'lidstaat'
p2647
S'unie'
p2648
tp2649
F0.4311877869423746
s(S'economie'
p2650
S'nederland'
p2651
tp2652
F0.9983172279968561
s(S'programma'
p2653
S'regering'
p2654
tp2655
F1.0
s(S'land'
p2656
S'welvaart'
p2657
tp2658
F0.06951172960548811
s(S'loop'
p2659
S'zitting'
p2660
tp2661
F0.026699848721548028
s(S'mogelijkheid'
p2662
S'ontwikkeling'
p2663
tp2664
F1.0
s(S'herstel'
p2665
S'maatregel'
p2666
tp2667
F1.0
s(S'instelling'
p2668
S'onderwijs'
p2669
tp2670
F0.8372310605041129
s(S'oplossing'
p2671
S'probleem'
p2672
tp2673
F1.0
s(S'mens'
p2674
S'werkloosheid'
p2675
tp2676
F0.058380451072169506
s(S'regering'
p2677
S'werkgever'
p2678
tp2679
F0.10272086835454992
s(S'overheid'
p2680
S'taak'
p2681
tp2682
F0.44075240910500174
s(S'welvaart'
p2683
S'werkgelegenheid'
p2684
tp2685
F0.9850116919721461
s(S'groei'
p2686
S'mens'
p2687
tp2688
F0.9534175088738767
s(S'nederland'
p2689
S'overheid'
p2690
tp2691
F0.8025010414354826
s(S'bijdrage'
p2692
S'onderwijs'
p2693
tp2694
F0.6370106352262012
s(S'unie'
p2695
S'verdrag'
p2696
tp2697
F1.0
s(S'ontwikkeling'
p2698
S'oplossing'
p2699
tp2700
F0.4716812033324911
s(S'kracht'
p2701
S'ontwikkeling'
p2702
tp2703
F1.0
s(S'beleid'
p2704
S'burger'
p2705
tp2706
F0.9360228064042277
s(S'regering'
p2707
S'stad'
p2708
tp2709
F0.32386078278791697
s(S'deel'
p2710
S'land'
p2711
tp2712
F0.8320901695147725
s(S'verbetering'
p2713
S'zorg'
p2714
tp2715
F0.17660916265730875
s(S'januari'
p2716
S'regering'
p2717
tp2718
F1.0
s(S'land'
p2719
S'overleg'
p2720
tp2721
F0.38949224873792077
s(S'name'
p2722
S'regering'
p2723
tp2724
F1.0
s(S'uitgaf'
p2725
S'vermindering'
p2726
tp2727
F0.5799469354030571
s(S'regering'
p2728
S'wijziging'
p2729
tp2730
F0.05244915563470298
s(S'arbeid'
p2731
S'vrouw'
p2732
tp2733
F0.08782805494616118
s(S'land'
p2734
S'verbetering'
p2735
tp2736
F0.24343095891045907
s(S'koninkrijk'
p2737
S'nederland'
p2738
tp2739
F1.0
s(S'stabiliteit'
p2740
S'unie'
p2741
tp2742
F0.7495346693243529
s(S'bescherming'
p2743
S'regering'
p2744
tp2745
F0.7909733168621886
s(S'economie'
p2746
S'maatregel'
p2747
tp2748
F1.0
s(S'burger'
p2749
S'toekomst'
p2750
tp2751
F0.2214101848062181
s(S'burger'
p2752
S'nederland'
p2753
tp2754
F0.6659174772163756
s(S'noodzaak'
p2755
S'regering'
p2756
tp2757
F1.0
s(S'mens'
p2758
S'toekomst'
p2759
tp2760
F0.2928146191651261
s(S'nederland'
p2761
S'verantwoordelijkheid'
p2762
tp2763
F0.3014063015069519
s(S'prioriteit'
p2764
S'regering'
p2765
tp2766
F1.0
s(S'edel'
p2767
S'mogenden'
p2768
tp2769
F0.6547370993383531
s(S'deel'
p2770
S'zorg'
p2771
tp2772
F0.035746560207751556
s(S'beleid'
p2773
S'samenleving'
p2774
tp2775
F0.3601153081970357
s(S'gebied'
p2776
S'maatregel'
p2777
tp2778
F0.9236539074050748
s(S'organisatie'
p2779
S'overheid'
p2780
tp2781
F1.0
s(S'betekenis'
p2782
S'regering'
p2783
tp2784
F0.8933121940858548
s(S'begroting'
p2785
S'uitgaf'
p2786
tp2787
F0.3162029426772418
s(S'nota'
p2788
S'regering'
p2789
tp2790
F1.0
s(S'kans'
p2791
S'samenleving'
p2792
tp2793
F0.7312939480843941
s(S'nederland'
p2794
S'unie'
p2795
tp2796
F0.16561252615563504
s(S'evenwicht'
p2797
S'regering'
p2798
tp2799
F1.0
s(S'land'
p2800
S'oplossing'
p2801
tp2802
F0.3117432324194404
s(S'europa'
p2803
S'regering'
p2804
tp2805
F0.8570456636117963
s(S'begin'
p2806
S'regering'
p2807
tp2808
F0.9962609853979805
s(S'gods'
p2809
S'zeeg'
p2810
tp2811
F0.07368227078259439
s(S'landbouw'
p2812
S'regering'
p2813
tp2814
F1.0
s(S'toestand'
p2815
S'verbetering'
p2816
tp2817
F1.0
s(S'inspanning'
p2818
S'nederland'
p2819
tp2820
F1.0
s(S'stelsel'
p2821
S'zekerheid'
p2822
tp2823
F0.11327359356427709
s(S'regering'
p2824
S'wereld'
p2825
tp2826
F0.0926076082731921
s(S'deel'
p2827
S'wereld'
p2828
tp2829
F0.04897287180910744
s(S'land'
p2830
S'regering'
p2831
tp2832
F0.6357920601497641
s(S'bestuur'
p2833
S'regering'
p2834
tp2835
F0.8629443187402522
s(S'land'
p2836
S'samenwerking'
p2837
tp2838
F0.39343910942448607
s(S'regeling'
p2839
S'voorbereiding'
p2840
tp2841
F0.21973616887673822
s(S'centraal'
p2842
S'regering'
p2843
tp2844
F0.9638295482993983
s(S'land'
p2845
S'vrijheid'
p2846
tp2847
F0.07688718265200095
s(S'land'
p2848
S'recht'
p2849
tp2850
F0.425462859970037
s(S'gemeenschap'
p2851
S'integratie'
p2852
tp2853
F0.8772245425577991
s(S'regering'
p2854
S'stand'
p2855
tp2856
F0.42468536031751625
s(S'regering'
p2857
S'wetgeving'
p2858
tp2859
F0.0751764073371011
s(S'kracht'
p2860
S'regering'
p2861
tp2862
F1.0
s(S'bevolking'
p2863
S'regering'
p2864
tp2865
F0.757674002476494
s(S'belang'
p2866
S'gemeenschap'
p2867
tp2868
F0.36463159460310196
s(S'handel'
p2869
S'land'
p2870
tp2871
F1.0
s(S'nederland'
p2872
S'versterking'
p2873
tp2874
F0.20113976145179197
s(S'onderwijs'
p2875
S'ontwikkeling'
p2876
tp2877
F1.0
s(S'mens'
p2878
S'probleem'
p2879
tp2880
F0.4468658694311806
s(S'herstel'
p2881
S'land'
p2882
tp2883
F1.0
s(S'ontwikkeling'
p2884
S'samenleving'
p2885
tp2886
F0.6410615795488451
s(S'inkomen'
p2887
S'werkgelegenheid'
p2888
tp2889
F0.11174220707030937
s(S'mogenden'
p2890
S'wet'
p2891
tp2892
F0.2179595506755388
s(S'onderwijs'
p2893
S'regering'
p2894
tp2895
F1.0
s(S'regering'
p2896
S'ruimte'
p2897
tp2898
F0.4647473102772416
s(S'middelbaar'
p2899
S'onderwijs'
p2900
tp2901
F1.0
s(S'tijd'
p2902
S'wereld'
p2903
tp2904
F0.23045595463984533
s(S'nederland'
p2905
S'samenwerking'
p2906
tp2907
F0.5369671563433698
s(S'gebied'
p2908
S'samenwerking'
p2909
tp2910
F0.4319510080016822
s(S'regeling'
p2911
S'wijziging'
p2912
tp2913
F0.0854025730884721
s(S'belang'
p2914
S'overheid'
p2915
tp2916
F0.38954297266526056
s(S'regering'
p2917
S'zekerheid'
p2918
tp2919
F0.04878766696036407
s(S'aandacht'
p2920
S'regering'
p2921
tp2922
F0.4448116313777799
s(S'burger'
p2923
S'overheid'
p2924
tp2925
F0.5348151184631617
s(S'maatregel'
p2926
S'toestand'
p2927
tp2928
F0.22497957958262269
s(S'beleid'
p2929
S'werkloosheid'
p2930
tp2931
F0.04130538067887177
s(S'kwaliteit'
p2932
S'land'
p2933
tp2934
F1.0
s(S'land'
p2935
S'ontwikkeling'
p2936
tp2937
F0.6615083509926006
s(S'mens'
p2938
S'ruimte'
p2939
tp2940
F0.35486781084288277
s(S'aantal'
p2941
S'land'
p2942
tp2943
F0.8023942139493789
s(S'docent'
p2944
S'onderwijs'
p2945
tp2946
F1.0
s(S'handel'
p2947
S'ontwikkeling'
p2948
tp2949
F0.932008061454906
s(S'herziening'
p2950
S'wijziging'
p2951
tp2952
F0.06646532760599183
s(S'beperking'
p2953
S'regering'
p2954
tp2955
F0.9023282779399227
s(S'ontwikkeling'
p2956
S'welvaart'
p2957
tp2958
F0.10516662872565483
s(S'belang'
p2959
S'samenleving'
p2960
tp2961
F0.280530630602935
s(S'onderwijs'
p2962
S'ontwerp'
p2963
tp2964
F0.7642925445160148
s(S'land'
p2965
S'landbouw'
p2966
tp2967
F0.5535656581356314
s(S'omstandigheid'
p2968
S'regering'
p2969
tp2970
F1.0
s(S'inkomst'
p2971
S'uitgaf'
p2972
tp2973
F0.5084133400029889
s(S'samenleving'
p2974
S'taak'
p2975
tp2976
F0.6120526977733026
s(S'werk'
p2977
S'werkgelegenheid'
p2978
tp2979
F0.7146932147829431
s(S'provincie'
p2980
S'regering'
p2981
tp2982
F1.0
s(S'bevordeer'
p2983
S'regering'
p2984
tp2985
F0.6834596534234493
s(S'ontwikkeling'
p2986
S'plaats'
p2987
tp2988
F0.7615271941275115
s(S'nederland'
p2989
S'toekomst'
p2990
tp2991
F0.33260018312454925
s(S'beleid'
p2992
S'nederland'
p2993
tp2994
F0.6230357022941818
s(S'onderwijs'
p2995
S'wetenschap'
p2996
tp2997
F0.03383444355053063
s.